; Function Attrs: nounwind uwtable
define void @lv_obj_remove_state(ptr noundef %0, i16 noundef zeroext %1) local_unnamed_addr #0 {
  %.not = icmp eq ptr %0, null
  br i1 %.not, label %.preheader, label %3

.preheader:                                       ; preds = %2, %.preheader
  br label %.preheader

3:                                                ; preds = %2
  %4 = getelementptr inbounds nuw i8, ptr %0, i64 60
  %5 = load i16, ptr %4, align 4, !tbaa !31
  %6 = xor i16 %1, -1
  %7 = and i16 %5, %6
  %.not6 = icmp eq i16 %5, %7
  br i1 %.not6, label %9, label %8

8:                                                ; preds = %3
  tail call fastcc void @update_obj_state(ptr noundef %0, i16 noundef zeroext %7)
  br label %9

9:                                                ; preds = %8, %3
  ret void
}